; Function Attrs: mustprogress uwtable
define hidden void @_ZNK2cv11MatOp_AddEx8multiplyERKNS_7MatExprEdRS1_(ptr nocapture nonnull readnone align 8 %0, ptr noundef nonnull align 8 dereferenceable(352) %1, double noundef %2, ptr noundef nonnull align 8 dereferenceable(352) %3) unnamed_addr #8 align 2 personality ptr @__gxx_personality_v0 {
  %5 = alloca %"class.cv::utils::trace::details::Region", align 8
  call void @_ZN2cv5utils5trace7details6RegionC1ERKNS3_21LocationStaticStorageE(ptr noundef nonnull align 8 dereferenceable(12) %5, ptr noundef nonnull align 8 dereferenceable(32) @_ZZNK2cv11MatOp_AddEx8multiplyERKNS_7MatExprEdRS1_E26__cv_trace_location_fn1374)
  call void @llvm.memcpy.p0.p0.i64(ptr noundef nonnull align 8 dereferenceable(12) %3, ptr noundef nonnull align 8 dereferenceable(12) %1, i64 12, i1 false)
  %6 = getelementptr inbounds i8, ptr %3, i64 16
  %7 = getelementptr inbounds i8, ptr %1, i64 16
  %8 = invoke noundef nonnull align 8 dereferenceable(96) ptr @_ZN2cv3MataSERKS0_(ptr noundef nonnull align 8 dereferenceable(96) %6, ptr noundef nonnull align 8 dereferenceable(96) %7)
          to label %.noexc unwind label %45

.noexc:                                           ; preds = %4
  %9 = getelementptr inbounds i8, ptr %3, i64 112
  %10 = getelementptr inbounds i8, ptr %1, i64 112
  %11 = invoke noundef nonnull align 8 dereferenceable(96) ptr @_ZN2cv3MataSERKS0_(ptr noundef nonnull align 8 dereferenceable(96) %9, ptr noundef nonnull align 8 dereferenceable(96) %10)
          to label %.noexc9 unwind label %45

.noexc9:                                          ; preds = %.noexc
  %12 = getelementptr inbounds i8, ptr %3, i64 208
  %13 = getelementptr inbounds i8, ptr %1, i64 208
  %14 = invoke noundef nonnull align 8 dereferenceable(96) ptr @_ZN2cv3MataSERKS0_(ptr noundef nonnull align 8 dereferenceable(96) %12, ptr noundef nonnull align 8 dereferenceable(96) %13)
          to label %15 unwind label %45

15:                                               ; preds = %.noexc9
  %16 = getelementptr inbounds i8, ptr %3, i64 304
  %17 = getelementptr inbounds i8, ptr %1, i64 304
  call void @llvm.memcpy.p0.p0.i64(ptr noundef nonnull align 8 dereferenceable(16) %16, ptr noundef nonnull align 8 dereferenceable(16) %17, i64 16, i1 false)
  %18 = getelementptr inbounds i8, ptr %3, i64 320
  %19 = getelementptr inbounds i8, ptr %1, i64 320
  %20 = getelementptr inbounds i8, ptr %1, i64 328
  %21 = getelementptr inbounds i8, ptr %3, i64 328
  %22 = getelementptr inbounds i8, ptr %1, i64 336
  %23 = getelementptr inbounds i8, ptr %3, i64 336
  %24 = getelementptr inbounds i8, ptr %1, i64 344
  %25 = load <2 x double>, ptr %16, align 8
  %26 = insertelement <2 x double> poison, double %2, i64 0
  %27 = shufflevector <2 x double> %26, <2 x double> poison, <2 x i32> zeroinitializer
  %28 = fmul <2 x double> %25, %27
  %29 = load double, ptr %19, align 8
  store double %29, ptr %18, align 8
  %30 = load double, ptr %20, align 8
  store double %30, ptr %21, align 8
  %31 = insertelement <2 x double> poison, double %29, i64 0
  %32 = insertelement <2 x double> %31, double %30, i64 1
  %33 = fmul <2 x double> %32, %27
  %34 = load double, ptr %22, align 8
  store double %34, ptr %23, align 8
  %35 = load double, ptr %24, align 8
  store <2 x double> %28, ptr %16, align 8
  store <2 x double> %33, ptr %18, align 8
  %36 = insertelement <2 x double> poison, double %34, i64 0
  %37 = insertelement <2 x double> %36, double %35, i64 1
  %38 = fmul <2 x double> %37, %27
  store <2 x double> %38, ptr %23, align 8
  %39 = getelementptr inbounds i8, ptr %5, i64 8
  %40 = load i32, ptr %39, align 8
  %.not.i = icmp eq i32 %40, 0
  br i1 %.not.i, label %_ZN2cv5utils5trace7details6RegionD2Ev.exit, label %41

41:                                               ; preds = %15
  invoke void @_ZN2cv5utils5trace7details6Region7destroyEv(ptr noundef nonnull align 8 dereferenceable(12) %5)
          to label %_ZN2cv5utils5trace7details6RegionD2Ev.exit unwind label %42

42:                                               ; preds = %41
  %43 = landingpad { ptr, i32 }
          catch ptr null
  %44 = extractvalue { ptr, i32 } %43, 0
  call void @__clang_call_terminate(ptr %44) #20
  unreachable

_ZN2cv5utils5trace7details6RegionD2Ev.exit:       ; preds = %15, %41
  ret void

45:                                               ; preds = %.noexc9, %.noexc, %4
  %46 = landingpad { ptr, i32 }
          cleanup
  call void @_ZN2cv5utils5trace7details6RegionD2Ev(ptr noundef nonnull align 8 dereferenceable(12) %5) #21
  resume { ptr, i32 } %46
}